(lp0
(lp1
F0.6111111111111112
aF0.3
aF0.5
aF0.6
aF0.5
aF0.6
aF0.7
aF0.4
aF0.4
aF0.5
aF0.6
aF0.5
aF0.7
aF0.8
aF0.6
aF0.4
aF0.5
aF0.7
aF0.5
aF0.5
aF0.6
aF0.5
aF0.6
aF0.6
aF0.5
aF0.3
aF0.7
aF0.3
aF0.6
aF0.4
aF0.3
aF0.6
aF0.5
aF0.7
aF0.6
aF0.4
aF0.7
aF0.5
aF0.9
aF0.6
aF0.7
aF0.4
aF0.5
aF0.6
aa(lp2
F0.43377777777777776
aF0.436
aF0.5306666666666666
aF0.38711111111111113
aF0.5137777777777778
aF0.356
aF0.41955555555555557
aF0.4
aF0.484
aF0.5
aF0.42
aF0.416
aF0.688
aF0.58
aF0.7
aF0.52
aF0.568
aF0.488
aF0.652
aF0.7
aF0.504
aF0.42
aF0.564
aF0.516
aF0.448
aF0.52
aF0.384
aF0.476
aF0.412
aF0.696
aF0.524
aF0.332
aF0.44
aF0.568
aF0.396
aF0.596
aF0.328
aF0.388
aF0.712
aF0.424
aF0.652
aF0.544
aF0.668
aF0.324
aa(lp3
F0.44533333333333336
aF0.3546666666666667
aF0.2644444444444444
aF0.36577777777777776
aF0.6031111111111112
aF0.43555555555555553
aF0.5653333333333334
aF0.49466666666666664
aF0.4022222222222222
aF0.5955555555555555
aF0.5711111111111111
aF0.532
aF0.484
aF0.5515555555555556
aF0.5
aF0.42
aF0.424
aF0.304
aF0.308
aF0.404
aF0.508
aF0.396
aF0.452
aF0.456
aF0.504
aF0.536
aF0.572
aF0.432
aF0.488
aF0.564
aF0.596
aF0.66
aF0.516
aF0.552
aF0.376
aF0.504
aF0.52
aF0.392
aF0.576
aF0.512
aF0.588
aF0.56
aF0.44
aF0.576
aa(lp4
F0.3431111111111111
aF0.22844444444444445
aF0.18533333333333332
aF0.3217777777777778
aF0.6044444444444445
aF0.4368888888888889
aF0.41555555555555557
aF0.4866666666666667
aF0.49466666666666664
aF0.47333333333333333
aF0.5253333333333333
aF0.5911111111111111
aF0.48133333333333334
aF0.5
aF0.4697777777777778
aF0.4991111111111111
aF0.5866666666666667
aF0.5075555555555555
aF0.5355555555555556
aF0.38755555555555554
aF0.46
aF0.492
aF0.508
aF0.492
aF0.392
aF0.328
aF0.388
aF0.536
aF0.508
aF0.444
aF0.412
aF0.516
aF0.5
aF0.52
aF0.476
aF0.568
aF0.516
aF0.468
aF0.424
aF0.632
aF0.508
aF0.524
aF0.344
aF0.476
aa(lp5
F0.4191111111111111
aF0.13555555555555557
aF0.16355555555555557
aF0.2262222222222222
aF0.24711111111111111
aF0.36044444444444446
aF0.42088888888888887
aF0.48
aF0.5653333333333334
aF0.42844444444444446
aF0.5591111111111111
aF0.4702222222222222
aF0.484
aF0.5195555555555555
aF0.5595555555555556
aF0.5506666666666666
aF0.37422222222222223
aF0.5168888888888888
aF0.37555555555555553
aF0.4368888888888889
aF0.49466666666666664
aF0.4431111111111111
aF0.5395555555555556
aF0.516
aF0.328
aF0.5431111111111111
aF0.41955555555555557
aF0.44355555555555554
aF0.552
aF0.424
aF0.5666666666666667
aF0.28
aF0.448
aF0.456
aF0.644
aF0.472
aF0.704
aF0.4955555555555556
aF0.568
aF0.58
aF0.532
aF0.62
aF0.568
aF0.46
aa(lp6
F0.4137777777777778
aF0.108
aF0.11244444444444444
aF0.09333333333333334
aF0.23555555555555555
aF0.21733333333333332
aF0.328
aF0.32355555555555554
aF0.4448888888888889
aF0.3982222222222222
aF0.4235555555555556
aF0.404
aF0.5324444444444445
aF0.5751111111111111
aF0.5
aF0.5466666666666666
aF0.5213333333333333
aF0.5862222222222222
aF0.528
aF0.54
aF0.552
aF0.5826666666666667
aF0.4431111111111111
aF0.42977777777777776
aF0.412
aF0.37777777777777777
aF0.5288888888888889
aF0.37866666666666665
aF0.45555555555555555
aF0.48577777777777775
aF0.4822222222222222
aF0.5111111111111111
aF0.36666666666666664
aF0.49466666666666664
aF0.6382222222222222
aF0.5795555555555556
aF0.424
aF0.496
aF0.5106666666666667
aF0.508
aF0.4151111111111111
aF0.488
aF0.4471111111111111
aF0.528
aa(lp7
F0.3293333333333333
aF0.17422222222222222
aF0.09822222222222222
aF0.17022222222222222
aF0.064
aF0.13555555555555557
aF0.184
aF0.24444444444444444
aF0.2693333333333333
aF0.4137777777777778
aF0.4622222222222222
aF0.40355555555555556
aF0.5271111111111111
aF0.5435555555555556
aF0.49377777777777776
aF0.508
aF0.5884444444444444
aF0.42577777777777776
aF0.5404444444444444
aF0.4137777777777778
aF0.5871111111111111
aF0.3857777777777778
aF0.3973333333333333
aF0.4742222222222222
aF0.4786666666666667
aF0.5937777777777777
aF0.49733333333333335
aF0.5057777777777778
aF0.47244444444444444
aF0.5088888888888888
aF0.468
aF0.5226666666666666
aF0.5186666666666667
aF0.5395555555555556
aF0.5284444444444445
aF0.48533333333333334
aF0.5462222222222223
aF0.492
aF0.656
aF0.5737777777777778
aF0.5075555555555555
aF0.5031111111111111
aF0.5222222222222223
aF0.428
aa(lp8
F0.39555555555555555
aF0.08844444444444445
aF0.06755555555555555
aF0.09333333333333334
aF0.04622222222222222
aF0.092
aF0.13111111111111112
aF0.1622222222222222
aF0.208
aF0.2733333333333333
aF0.2568888888888889
aF0.3808888888888889
aF0.33955555555555555
aF0.444
aF0.36088888888888887
aF0.3982222222222222
aF0.3884444444444444
aF0.4866666666666667
aF0.5137777777777778
aF0.3648888888888889
aF0.472
aF0.5102222222222222
aF0.37333333333333335
aF0.4902222222222222
aF0.5111111111111111
aF0.6031111111111112
aF0.5195555555555555
aF0.41333333333333333
aF0.4017777777777778
aF0.41688888888888886
aF0.48933333333333334
aF0.5742222222222222
aF0.4697777777777778
aF0.4008888888888889
aF0.5671111111111111
aF0.47333333333333333
aF0.5488888888888889
aF0.4822222222222222
aF0.5933333333333334
aF0.5568888888888889
aF0.6177777777777778
aF0.5844444444444444
aF0.4631111111111111
aF0.4617777777777778
aa(lp9
F0.43955555555555553
aF0.12088888888888889
aF0.05511111111111111
aF0.08088888888888889
aF0.056
aF0.060444444444444446
aF0.12355555555555556
aF0.10711111111111112
aF0.15955555555555556
aF0.21911111111111112
aF0.2511111111111111
aF0.3662222222222222
aF0.304
aF0.38177777777777777
aF0.4568888888888889
aF0.44222222222222224
aF0.28044444444444444
aF0.48044444444444445
aF0.4862222222222222
aF0.48533333333333334
aF0.44133333333333336
aF0.47555555555555556
aF0.39911111111111114
aF0.4408888888888889
aF0.5595555555555556
aF0.43066666666666664
aF0.5195555555555555
aF0.532
aF0.5964444444444444
aF0.5155555555555555
aF0.5342222222222223
aF0.45466666666666666
aF0.4928888888888889
aF0.44133333333333336
aF0.456
aF0.4662222222222222
aF0.5128888888888888
aF0.4697777777777778
aF0.4582222222222222
aF0.5195555555555555
aF0.4111111111111111
aF0.4631111111111111
aF0.5288888888888889
aF0.5951111111111111
aa(lp10
F0.3342222222222222
aF0.17066666666666666
aF0.08355555555555555
aF0.058222222222222224
aF0.04577777777777778
aF0.051111111111111114
aF0.025777777777777778
aF0.064
aF0.06577777777777778
aF0.19955555555555557
aF0.15155555555555555
aF0.22711111111111112
aF0.31422222222222224
aF0.26755555555555555
aF0.2773333333333333
aF0.36933333333333335
aF0.3471111111111111
aF0.404
aF0.4524444444444444
aF0.4608888888888889
aF0.3857777777777778
aF0.4146666666666667
aF0.5586666666666666
aF0.3933333333333333
aF0.43333333333333335
aF0.4444444444444444
aF0.4608888888888889
aF0.5391111111111111
aF0.4275555555555556
aF0.48444444444444446
aF0.49644444444444447
aF0.5697777777777778
aF0.5222222222222223
aF0.5008888888888889
aF0.5511111111111111
aF0.49733333333333335
aF0.4111111111111111
aF0.48488888888888887
aF0.5542222222222222
aF0.5591111111111111
aF0.5746666666666667
aF0.4915555555555556
aF0.5577777777777778
aF0.5528888888888889
aa(lp11
F0.3831111111111111
aF0.12222222222222222
aF0.05511111111111111
aF0.036444444444444446
aF0.036444444444444446
aF0.020444444444444446
aF0.028444444444444446
aF0.03288888888888889
aF0.10355555555555555
aF0.08355555555555555
aF0.1368888888888889
aF0.11866666666666667
aF0.20533333333333334
aF0.212
aF0.27066666666666667
aF0.32711111111111113
aF0.26355555555555554
aF0.34044444444444444
aF0.4191111111111111
aF0.38755555555555554
aF0.4582222222222222
aF0.3586666666666667
aF0.47333333333333333
aF0.45911111111111114
aF0.43955555555555553
aF0.4928888888888889
aF0.36133333333333334
aF0.41955555555555557
aF0.44622222222222224
aF0.5373333333333333
aF0.49644444444444447
aF0.4528888888888889
aF0.4111111111111111
aF0.5
aF0.4524444444444444
aF0.5764444444444444
aF0.5351111111111111
aF0.5271111111111111
aF0.408
aF0.4822222222222222
aF0.48577777777777775
aF0.43644444444444447
aF0.5022222222222222
aF0.468
aa(lp12
F0.36666666666666664
aF0.07066666666666667
aF0.028444444444444446
aF0.041777777777777775
aF0.021777777777777778
aF0.004888888888888889
aF0.01911111111111111
aF0.026222222222222223
aF0.04933333333333333
aF0.07555555555555556
aF0.14755555555555555
aF0.12755555555555556
aF0.10755555555555556
aF0.14533333333333334
aF0.19466666666666665
aF0.37244444444444447
aF0.38177777777777777
aF0.328
aF0.44177777777777777
aF0.2986666666666667
aF0.376
aF0.39555555555555555
aF0.39955555555555555
aF0.39911111111111114
aF0.40844444444444444
aF0.488
aF0.356
aF0.48133333333333334
aF0.46444444444444444
aF0.4693333333333333
aF0.48044444444444445
aF0.412
aF0.5591111111111111
aF0.49377777777777776
aF0.47244444444444444
aF0.48533333333333334
aF0.5262222222222223
aF0.368
aF0.572
aF0.4822222222222222
aF0.4742222222222222
aF0.45066666666666666
aF0.5106666666666667
aF0.4031111111111111
aa(lp13
F0.2831111111111111
aF0.07733333333333334
aF0.03688888888888889
aF0.03155555555555556
aF0.003111111111111111
aF0.0044444444444444444
aF0.017777777777777778
aF0.018666666666666668
aF0.03955555555555555
aF0.057777777777777775
aF0.09111111111111111
aF0.08711111111111111
aF0.10888888888888888
aF0.148
aF0.16044444444444445
aF0.20266666666666666
aF0.22977777777777778
aF0.3168888888888889
aF0.32844444444444443
aF0.2697777777777778
aF0.4097777777777778
aF0.4017777777777778
aF0.4008888888888889
aF0.3595555555555556
aF0.46444444444444444
aF0.43022222222222223
aF0.4088888888888889
aF0.39955555555555555
aF0.43555555555555553
aF0.46844444444444444
aF0.4631111111111111
aF0.4368888888888889
aF0.4693333333333333
aF0.5133333333333333
aF0.48044444444444445
aF0.4186666666666667
aF0.39511111111111114
aF0.44355555555555554
aF0.5537777777777778
aF0.476
aF0.5173333333333333
aF0.5542222222222222
aF0.49333333333333335
aF0.4728888888888889
aa(lp14
F0.33644444444444443
aF0.056
aF0.012
aF0.024444444444444446
aF0.016444444444444446
aF0.003111111111111111
aF0.008
aF0.010222222222222223
aF0.013333333333333334
aF0.026222222222222223
aF0.052444444444444446
aF0.043555555555555556
aF0.043555555555555556
aF0.06622222222222222
aF0.12488888888888888
aF0.17955555555555555
aF0.16666666666666666
aF0.15777777777777777
aF0.2591111111111111
aF0.2568888888888889
aF0.22755555555555557
aF0.33866666666666667
aF0.36088888888888887
aF0.2857777777777778
aF0.3071111111111111
aF0.41555555555555557
aF0.3791111111111111
aF0.432
aF0.4666666666666667
aF0.39066666666666666
aF0.42133333333333334
aF0.392
aF0.38622222222222224
aF0.4782222222222222
aF0.34933333333333333
aF0.44266666666666665
aF0.4275555555555556
aF0.5431111111111111
aF0.3413333333333333
aF0.5275555555555556
aF0.484
aF0.47244444444444444
aF0.4693333333333333
aF0.4151111111111111
aa(lp15
F0.44666666666666666
aF0.11511111111111111
aF0.05377777777777778
aF0.020888888888888887
aF0.026222222222222223
aF0.018222222222222223
aF0.020444444444444446
aF0.0017777777777777779
aF0.029333333333333333
aF0.0044444444444444444
aF0.03111111111111111
aF0.030222222222222223
aF0.03155555555555556
aF0.08088888888888889
aF0.08044444444444444
aF0.07288888888888889
aF0.19822222222222222
aF0.15644444444444444
aF0.16755555555555557
aF0.148
aF0.24133333333333334
aF0.27555555555555555
aF0.25333333333333335
aF0.2791111111111111
aF0.3008888888888889
aF0.388
aF0.37244444444444447
aF0.35555555555555557
aF0.4071111111111111
aF0.38355555555555554
aF0.412
aF0.432
aF0.42533333333333334
aF0.4817777777777778
aF0.472
aF0.4262222222222222
aF0.4706666666666667
aF0.46444444444444444
aF0.40755555555555556
aF0.4048888888888889
aF0.4617777777777778
aF0.4328888888888889
aF0.46
aF0.5462222222222223
aa(lp16
F0.29555555555555557
aF0.09866666666666667
aF0.03111111111111111
aF0.011111111111111112
aF0.0013333333333333333
aF0.0035555555555555557
aF0.0017777777777777779
aF0.009333333333333334
aF0.00044444444444444447
aF0.0013333333333333333
aF0.006222222222222222
aF0.029333333333333333
aF0.025777777777777778
aF0.024888888888888887
aF0.028444444444444446
aF0.06311111111111112
aF0.08444444444444445
aF0.13111111111111112
aF0.15955555555555556
aF0.15555555555555556
aF0.1622222222222222
aF0.22444444444444445
aF0.228
aF0.26711111111111113
aF0.27555555555555555
aF0.3466666666666667
aF0.3204444444444444
aF0.39022222222222225
aF0.3537777777777778
aF0.31066666666666665
aF0.41733333333333333
aF0.4066666666666667
aF0.4231111111111111
aF0.35333333333333333
aF0.4235555555555556
aF0.44755555555555554
aF0.4182222222222222
aF0.42488888888888887
aF0.3937777777777778
aF0.4431111111111111
aF0.3942222222222222
aF0.44133333333333336
aF0.43377777777777776
aF0.4231111111111111
aa(lp17
F0.35688888888888887
aF0.09688888888888889
aF0.03422222222222222
aF0.015555555555555555
aF0.008444444444444444
aF0.005333333333333333
aF0.008
aF0.006666666666666667
aF0.010222222222222223
aF0.008888888888888889
aF0.0013333333333333333
aF0.015111111111111112
aF0.028888888888888888
aF0.02711111111111111
aF0.028888888888888888
aF0.052
aF0.04577777777777778
aF0.09244444444444444
aF0.14533333333333334
aF0.21866666666666668
aF0.124
aF0.17422222222222222
aF0.2
aF0.296
aF0.20222222222222222
aF0.2617777777777778
aF0.3551111111111111
aF0.28888888888888886
aF0.40044444444444444
aF0.3248888888888889
aF0.33511111111111114
aF0.37333333333333335
aF0.40844444444444444
aF0.4351111111111111
aF0.344
aF0.4031111111111111
aF0.348
aF0.352
aF0.428
aF0.392
aF0.4177777777777778
aF0.4013333333333333
aF0.4457777777777778
aF0.3897777777777778
aa(lp18
F0.3942222222222222
aF0.09155555555555556
aF0.044444444444444446
aF0.010666666666666666
aF0.011555555555555555
aF0.006222222222222222
aF0.00044444444444444447
aF0.0035555555555555557
aF0.0057777777777777775
aF0.0044444444444444444
aF0.0022222222222222222
aF0.009333333333333334
aF0.0035555555555555557
aF0.012888888888888889
aF0.03866666666666667
aF0.034666666666666665
aF0.05466666666666667
aF0.059111111111111114
aF0.0951111111111111
aF0.06488888888888888
aF0.12755555555555556
aF0.16622222222222222
aF0.17644444444444443
aF0.21422222222222223
aF0.17555555555555555
aF0.25377777777777777
aF0.21288888888888888
aF0.26666666666666666
aF0.292
aF0.26222222222222225
aF0.35555555555555557
aF0.38755555555555554
aF0.34933333333333333
aF0.3497777777777778
aF0.4408888888888889
aF0.37377777777777776
aF0.376
aF0.308
aF0.43466666666666665
aF0.4311111111111111
aF0.43422222222222223
aF0.5164444444444445
aF0.44266666666666665
aF0.44666666666666666
aa(lp19
F0.3711111111111111
aF0.06133333333333333
aF0.015111111111111112
aF0.024888888888888887
aF0.0071111111111111115
aF0.00044444444444444447
aF0.006222222222222222
aF0.0
aF0.0008888888888888889
aF0.003111111111111111
aF0.0035555555555555557
aF0.010666666666666666
aF0.0071111111111111115
aF0.011111111111111112
aF0.014222222222222223
aF0.027555555555555555
aF0.028
aF0.04755555555555555
aF0.06577777777777778
aF0.07377777777777778
aF0.09422222222222222
aF0.10044444444444445
aF0.14533333333333334
aF0.15511111111111112
aF0.18088888888888888
aF0.24888888888888888
aF0.22533333333333333
aF0.2991111111111111
aF0.2813333333333333
aF0.3088888888888889
aF0.32266666666666666
aF0.26755555555555555
aF0.3897777777777778
aF0.2848888888888889
aF0.2742222222222222
aF0.3328888888888889
aF0.36
aF0.4431111111111111
aF0.3497777777777778
aF0.31955555555555554
aF0.4191111111111111
aF0.43555555555555553
aF0.4142222222222222
aF0.3377777777777778
aa(lp20
F0.41733333333333333
aF0.09333333333333334
aF0.03333333333333333
aF0.013333333333333334
aF0.0044444444444444444
aF0.0008888888888888889
aF0.0
aF0.00044444444444444447
aF0.0008888888888888889
aF0.003111111111111111
aF0.011111111111111112
aF0.0
aF0.015555555555555555
aF0.00044444444444444447
aF0.018666666666666668
aF0.012888888888888889
aF0.024888888888888887
aF0.029777777777777778
aF0.016
aF0.04044444444444444
aF0.08888888888888889
aF0.07644444444444444
aF0.11377777777777778
aF0.124
aF0.15333333333333332
aF0.17466666666666666
aF0.1582222222222222
aF0.21688888888888888
aF0.20622222222222222
aF0.20622222222222222
aF0.24533333333333332
aF0.316
aF0.26622222222222225
aF0.31244444444444447
aF0.2995555555555556
aF0.2857777777777778
aF0.3831111111111111
aF0.3
aF0.35644444444444445
aF0.37644444444444447
aF0.40355555555555556
aF0.4568888888888889
aF0.3937777777777778
aF0.4288888888888889
aa(lp21
F0.3231111111111111
aF0.06977777777777777
aF0.02
aF0.0035555555555555557
aF0.008
aF0.00044444444444444447
aF0.0044444444444444444
aF0.011111111111111112
aF0.0
aF0.00044444444444444447
aF0.0
aF0.0017777777777777779
aF0.0
aF0.010666666666666666
aF0.008
aF0.013777777777777778
aF0.013333333333333334
aF0.011555555555555555
aF0.03288888888888889
aF0.024
aF0.04666666666666667
aF0.04488888888888889
aF0.059555555555555556
aF0.06711111111111111
aF0.11466666666666667
aF0.12088888888888889
aF0.14622222222222223
aF0.1608888888888889
aF0.1648888888888889
aF0.2262222222222222
aF0.22444444444444445
aF0.24
aF0.2902222222222222
aF0.26666666666666666
aF0.2604444444444444
aF0.3342222222222222
aF0.292
aF0.328
aF0.30622222222222223
aF0.36533333333333334
aF0.3417777777777778
aF0.372
aF0.3804444444444444
aF0.3751111111111111
aa(lp22
F0.32711111111111113
aF0.07111111111111111
aF0.028888888888888888
aF0.013777777777777778
aF0.006222222222222222
aF0.00044444444444444447
aF0.0
aF0.0
aF0.0071111111111111115
aF0.00044444444444444447
aF0.006666666666666667
aF0.0013333333333333333
aF0.0
aF0.00044444444444444447
aF0.00044444444444444447
aF0.0026666666666666666
aF0.004888888888888889
aF0.020888888888888887
aF0.020444444444444446
aF0.04711111111111111
aF0.04888888888888889
aF0.029777777777777778
aF0.024
aF0.05511111111111111
aF0.09244444444444444
aF0.07066666666666667
aF0.09733333333333333
aF0.1328888888888889
aF0.20355555555555555
aF0.13866666666666666
aF0.2137777777777778
aF0.18533333333333332
aF0.22133333333333333
aF0.24222222222222223
aF0.2862222222222222
aF0.22133333333333333
aF0.3302222222222222
aF0.3288888888888889
aF0.2911111111111111
aF0.276
aF0.3164444444444444
aF0.36933333333333335
aF0.3711111111111111
aF0.4106666666666667
aa(lp23
F0.37377777777777776
aF0.04888888888888889
aF0.02
aF0.012888888888888889
aF0.0071111111111111115
aF0.0008888888888888889
aF0.003111111111111111
aF0.0
aF0.00044444444444444447
aF0.0017777777777777779
aF0.0
aF0.00044444444444444447
aF0.0057777777777777775
aF0.0
aF0.0035555555555555557
aF0.006222222222222222
aF0.0022222222222222222
aF0.0
aF0.010222222222222223
aF0.008444444444444444
aF0.03955555555555555
aF0.025777777777777778
aF0.051555555555555556
aF0.04488888888888889
aF0.07022222222222223
aF0.10711111111111112
aF0.08266666666666667
aF0.14888888888888888
aF0.13111111111111112
aF0.15066666666666667
aF0.15288888888888888
aF0.212
aF0.2222222222222222
aF0.25866666666666666
aF0.25244444444444447
aF0.20444444444444446
aF0.3
aF0.30666666666666664
aF0.31244444444444447
aF0.3462222222222222
aF0.3373333333333333
aF0.3426666666666667
aF0.36577777777777776
aF0.33111111111111113
aa(lp24
F0.316
aF0.050222222222222224
aF0.025777777777777778
aF0.004
aF0.00044444444444444447
aF0.00044444444444444447
aF0.00044444444444444447
aF0.0
aF0.0
aF0.00044444444444444447
aF0.0
aF0.0
aF0.0
aF0.0035555555555555557
aF0.0008888888888888889
aF0.0013333333333333333
aF0.0026666666666666666
aF0.0008888888888888889
aF0.0071111111111111115
aF0.012444444444444444
aF0.013777777777777778
aF0.020888888888888887
aF0.024444444444444446
aF0.036
aF0.021333333333333333
aF0.08355555555555555
aF0.033777777777777775
aF0.10666666666666667
aF0.09377777777777778
aF0.09688888888888889
aF0.12444444444444444
aF0.12044444444444445
aF0.15955555555555556
aF0.17555555555555555
aF0.23955555555555555
aF0.2697777777777778
aF0.17555555555555555
aF0.2528888888888889
aF0.3293333333333333
aF0.21911111111111112
aF0.216
aF0.31244444444444447
aF0.29777777777777775
aF0.33111111111111113
aa.