(lp0
(lp1
F0.0
aF0.1111111111111111
aF0.1111111111111111
aF0.0
aF0.0
aF0.0
aF0.0
aF0.0
aF0.0
aF0.0
aF0.0
aF0.0
aF0.0
aF0.0
aF0.0
aF0.0
aF0.0
aF0.0
aF0.0
aF0.0
aF0.0
aF0.0
aF0.0
aF0.0
aF0.0
aF0.0
aF0.0
aF0.0
aF0.0
aF0.0
aF0.0
aF0.0
aF0.0
aF0.0
aF0.0
aF0.0
aF0.0
aF0.0
aF0.0
aF0.0
aF0.0
aF0.0
aF0.0
aF0.0
aa(lp2
F0.3804444444444444
aF0.29288888888888887
aF0.16844444444444445
aF0.00044444444444444447
aF0.0
aF0.0
aF0.0
aF0.0
aF0.0
aF0.0
aF0.0
aF0.0
aF0.0
aF0.0
aF0.0
aF0.0
aF0.0
aF0.0
aF0.0
aF0.0
aF0.0
aF0.0
aF0.0
aF0.0
aF0.0
aF0.0
aF0.0
aF0.0
aF0.0
aF0.0
aF0.0
aF0.0
aF0.0
aF0.0
aF0.0
aF0.0
aF0.0
aF0.0
aF0.0
aF0.0
aF0.0
aF0.0
aF0.0
aF0.0
aa(lp3
F0.3151111111111111
aF0.3675555555555556
aF0.3297777777777778
aF0.06755555555555555
aF0.021333333333333333
aF0.008888888888888889
aF0.0044444444444444444
aF0.0013333333333333333
aF0.0013333333333333333
aF0.0
aF0.0
aF0.0
aF0.0
aF0.0
aF0.0
aF0.0
aF0.0
aF0.0
aF0.0
aF0.0
aF0.0
aF0.0
aF0.0
aF0.0
aF0.0
aF0.0
aF0.0
aF0.0
aF0.0
aF0.0
aF0.0
aF0.0
aF0.0
aF0.0
aF0.0
aF0.0
aF0.0
aF0.0
aF0.0
aF0.0
aF0.0
aF0.0
aF0.0
aF0.0
aa(lp4
F0.5133333333333333
aF0.52
aF0.4497777777777778
aF0.2048888888888889
aF0.09155555555555556
aF0.051555555555555556
aF0.033777777777777775
aF0.025333333333333333
aF0.03333333333333333
aF0.016
aF0.006666666666666667
aF0.0008888888888888889
aF0.0013333333333333333
aF0.0013333333333333333
aF0.0008888888888888889
aF0.0008888888888888889
aF0.00044444444444444447
aF0.0
aF0.0
aF0.0
aF0.0
aF0.0
aF0.0
aF0.0
aF0.0
aF0.0
aF0.0
aF0.0
aF0.0
aF0.0
aF0.0
aF0.0
aF0.0
aF0.0
aF0.0
aF0.0
aF0.0
aF0.0
aF0.0
aF0.0
aF0.0
aF0.0
aF0.0
aF0.0
aa(lp5
F0.41688888888888886
aF0.5213333333333333
aF0.3844444444444444
aF0.25066666666666665
aF0.1497777777777778
aF0.16311111111111112
aF0.14444444444444443
aF0.0791111111111111
aF0.029777777777777778
aF0.07022222222222223
aF0.03244444444444444
aF0.014666666666666666
aF0.011111111111111112
aF0.016444444444444446
aF0.03866666666666667
aF0.004888888888888889
aF0.0026666666666666666
aF0.003111111111111111
aF0.004
aF0.0022222222222222222
aF0.00044444444444444447
aF0.00044444444444444447
aF0.00044444444444444447
aF0.00044444444444444447
aF0.0
aF0.00044444444444444447
aF0.0
aF0.0
aF0.0
aF0.0
aF0.00044444444444444447
aF0.0
aF0.0
aF0.0
aF0.0
aF0.0
aF0.0
aF0.0
aF0.0
aF0.0
aF0.0
aF0.0
aF0.0
aF0.0
aa(lp6
F0.3968888888888889
aF0.5897777777777777
aF0.45155555555555554
aF0.3111111111111111
aF0.16666666666666666
aF0.1991111111111111
aF0.128
aF0.112
aF0.07333333333333333
aF0.064
aF0.035111111111111114
aF0.02666666666666667
aF0.02666666666666667
aF0.020888888888888887
aF0.024888888888888887
aF0.028444444444444446
aF0.016
aF0.009777777777777778
aF0.013333333333333334
aF0.008888888888888889
aF0.0057777777777777775
aF0.0044444444444444444
aF0.006222222222222222
aF0.0035555555555555557
aF0.0008888888888888889
aF0.0017777777777777779
aF0.0026666666666666666
aF0.0008888888888888889
aF0.003111111111111111
aF0.0022222222222222222
aF0.00044444444444444447
aF0.0017777777777777779
aF0.0017777777777777779
aF0.0017777777777777779
aF0.0013333333333333333
aF0.00044444444444444447
aF0.0
aF0.0
aF0.0
aF0.0
aF0.00044444444444444447
aF0.00044444444444444447
aF0.0
aF0.0
aa(lp7
F0.5395555555555556
aF0.5284444444444445
aF0.31777777777777777
aF0.30622222222222223
aF0.2528888888888889
aF0.22355555555555556
aF0.1711111111111111
aF0.15777777777777777
aF0.13422222222222221
aF0.07822222222222222
aF0.034666666666666665
aF0.04755555555555555
aF0.044
aF0.04488888888888889
aF0.05555555555555555
aF0.030222222222222223
aF0.027555555555555555
aF0.035555555555555556
aF0.010666666666666666
aF0.021333333333333333
aF0.02266666666666667
aF0.004888888888888889
aF0.016444444444444446
aF0.0071111111111111115
aF0.011555555555555555
aF0.010666666666666666
aF0.008
aF0.0044444444444444444
aF0.004888888888888889
aF0.0057777777777777775
aF0.004
aF0.0017777777777777779
aF0.003111111111111111
aF0.0044444444444444444
aF0.0017777777777777779
aF0.0022222222222222222
aF0.0013333333333333333
aF0.0
aF0.0
aF0.0017777777777777779
aF0.0
aF0.0008888888888888889
aF0.0013333333333333333
aF0.00044444444444444447
aa(lp8
F0.4653333333333333
aF0.54
aF0.42044444444444445
aF0.24533333333333332
aF0.252
aF0.20977777777777779
aF0.17022222222222222
aF0.172
aF0.18133333333333335
aF0.12488888888888888
aF0.10533333333333333
aF0.072
aF0.124
aF0.06177777777777778
aF0.043111111111111114
aF0.043555555555555556
aF0.04533333333333334
aF0.04755555555555555
aF0.03155555555555556
aF0.04044444444444444
aF0.034666666666666665
aF0.017777777777777778
aF0.02311111111111111
aF0.03333333333333333
aF0.016888888888888887
aF0.018222222222222223
aF0.013333333333333334
aF0.014222222222222223
aF0.0071111111111111115
aF0.011111111111111112
aF0.006222222222222222
aF0.011555555555555555
aF0.004
aF0.006666666666666667
aF0.009333333333333334
aF0.0071111111111111115
aF0.006666666666666667
aF0.004
aF0.006666666666666667
aF0.004888888888888889
aF0.005333333333333333
aF0.004888888888888889
aF0.0008888888888888889
aF0.0013333333333333333
aa(lp9
F0.42
aF0.5986666666666667
aF0.4106666666666667
aF0.26355555555555554
aF0.17733333333333334
aF0.2111111111111111
aF0.16933333333333334
aF0.1791111111111111
aF0.11822222222222223
aF0.14355555555555555
aF0.16311111111111112
aF0.14844444444444443
aF0.09022222222222222
aF0.12755555555555556
aF0.07288888888888889
aF0.042666666666666665
aF0.08133333333333333
aF0.049777777777777775
aF0.05377777777777778
aF0.04133333333333333
aF0.03244444444444444
aF0.033777777777777775
aF0.027555555555555555
aF0.022222222222222223
aF0.03244444444444444
aF0.025777777777777778
aF0.024888888888888887
aF0.020444444444444446
aF0.023555555555555555
aF0.013777777777777778
aF0.01911111111111111
aF0.012444444444444444
aF0.011555555555555555
aF0.012888888888888889
aF0.012444444444444444
aF0.008
aF0.008
aF0.0071111111111111115
aF0.007555555555555556
aF0.009777777777777778
aF0.009777777777777778
aF0.004888888888888889
aF0.008
aF0.0035555555555555557
aa(lp10
F0.4448888888888889
aF0.4888888888888889
aF0.3333333333333333
aF0.15955555555555556
aF0.22177777777777777
aF0.12933333333333333
aF0.0951111111111111
aF0.14933333333333335
aF0.12222222222222222
aF0.14044444444444446
aF0.23377777777777778
aF0.13555555555555557
aF0.15333333333333332
aF0.10888888888888888
aF0.15066666666666667
aF0.08977777777777778
aF0.07244444444444445
aF0.057777777777777775
aF0.08
aF0.052
aF0.057777777777777775
aF0.088
aF0.036
aF0.043111111111111114
aF0.052444444444444446
aF0.03866666666666667
aF0.03244444444444444
aF0.028888888888888888
aF0.028444444444444446
aF0.021777777777777778
aF0.021333333333333333
aF0.018222222222222223
aF0.017777777777777778
aF0.021777777777777778
aF0.016
aF0.016
aF0.016
aF0.014222222222222223
aF0.011111111111111112
aF0.009777777777777778
aF0.016
aF0.006666666666666667
aF0.008888888888888889
aF0.012888888888888889
aa(lp11
F0.47244444444444444
aF0.5284444444444445
aF0.3791111111111111
aF0.21688888888888888
aF0.10311111111111111
aF0.15733333333333333
aF0.11155555555555556
aF0.1351111111111111
aF0.12044444444444445
aF0.1288888888888889
aF0.14222222222222222
aF0.132
aF0.19955555555555557
aF0.10444444444444445
aF0.11333333333333333
aF0.11688888888888889
aF0.09422222222222222
aF0.06666666666666667
aF0.09644444444444444
aF0.09466666666666666
aF0.07777777777777778
aF0.06444444444444444
aF0.052
aF0.05333333333333334
aF0.058222222222222224
aF0.059555555555555556
aF0.05422222222222222
aF0.037333333333333336
aF0.033777777777777775
aF0.029777777777777778
aF0.043111111111111114
aF0.027555555555555555
aF0.021777777777777778
aF0.02711111111111111
aF0.025777777777777778
aF0.028888888888888888
aF0.028444444444444446
aF0.021777777777777778
aF0.028
aF0.015555555555555555
aF0.014666666666666666
aF0.014666666666666666
aF0.018222222222222223
aF0.013333333333333334
aa(lp12
F0.5195555555555555
aF0.4622222222222222
aF0.3595555555555556
aF0.17466666666666666
aF0.072
aF0.09466666666666666
aF0.09955555555555555
aF0.096
aF0.10088888888888889
aF0.09377777777777778
aF0.11022222222222222
aF0.15333333333333332
aF0.09955555555555555
aF0.13866666666666666
aF0.10844444444444444
aF0.12355555555555556
aF0.09333333333333334
aF0.11688888888888889
aF0.09288888888888888
aF0.096
aF0.09555555555555556
aF0.11466666666666667
aF0.07244444444444445
aF0.051111111111111114
aF0.07777777777777778
aF0.052444444444444446
aF0.04755555555555555
aF0.08888888888888889
aF0.07511111111111111
aF0.04933333333333333
aF0.05688888888888889
aF0.032
aF0.03822222222222222
aF0.03777777777777778
aF0.04
aF0.027555555555555555
aF0.03155555555555556
aF0.02711111111111111
aF0.035111111111111114
aF0.020888888888888887
aF0.02311111111111111
aF0.025333333333333333
aF0.020444444444444446
aF0.016
aa(lp13
F0.5195555555555555
aF0.5177777777777778
aF0.3231111111111111
aF0.16933333333333334
aF0.07244444444444445
aF0.09688888888888889
aF0.04711111111111111
aF0.07644444444444444
aF0.09333333333333334
aF0.12266666666666666
aF0.10266666666666667
aF0.08355555555555555
aF0.11422222222222222
aF0.10533333333333333
aF0.11022222222222222
aF0.14933333333333335
aF0.11688888888888889
aF0.11911111111111111
aF0.09777777777777778
aF0.1408888888888889
aF0.104
aF0.09955555555555555
aF0.112
aF0.08977777777777778
aF0.07511111111111111
aF0.10133333333333333
aF0.06177777777777778
aF0.06844444444444445
aF0.059555555555555556
aF0.076
aF0.049777777777777775
aF0.064
aF0.034666666666666665
aF0.036444444444444446
aF0.06266666666666666
aF0.036
aF0.033777777777777775
aF0.027555555555555555
aF0.029777777777777778
aF0.03822222222222222
aF0.036
aF0.028
aF0.033777777777777775
aF0.020888888888888887
aa(lp14
F0.5231111111111111
aF0.5053333333333333
aF0.37244444444444447
aF0.13866666666666666
aF0.07777777777777778
aF0.044
aF0.044
aF0.03911111111111111
aF0.05733333333333333
aF0.09022222222222222
aF0.12088888888888889
aF0.08
aF0.0951111111111111
aF0.09466666666666666
aF0.08666666666666667
aF0.14
aF0.1328888888888889
aF0.14577777777777778
aF0.13422222222222221
aF0.09333333333333334
aF0.08844444444444445
aF0.09866666666666667
aF0.08533333333333333
aF0.09688888888888889
aF0.07955555555555556
aF0.08755555555555555
aF0.10933333333333334
aF0.1
aF0.07022222222222223
aF0.064
aF0.07955555555555556
aF0.06
aF0.04622222222222222
aF0.05288888888888889
aF0.056
aF0.04933333333333333
aF0.04133333333333333
aF0.03955555555555555
aF0.02666666666666667
aF0.03333333333333333
aF0.030666666666666665
aF0.03422222222222222
aF0.033777777777777775
aF0.02711111111111111
aa(lp15
F0.47955555555555557
aF0.4666666666666667
aF0.3626666666666667
aF0.10844444444444444
aF0.09066666666666667
aF0.058222222222222224
aF0.07333333333333333
aF0.04666666666666667
aF0.04488888888888889
aF0.05511111111111111
aF0.06844444444444445
aF0.07777777777777778
aF0.06577777777777778
aF0.08755555555555555
aF0.12088888888888889
aF0.10044444444444445
aF0.12
aF0.12222222222222222
aF0.1111111111111111
aF0.11777777777777777
aF0.10177777777777777
aF0.104
aF0.12222222222222222
aF0.14177777777777778
aF0.12977777777777777
aF0.11333333333333333
aF0.07777777777777778
aF0.09422222222222222
aF0.07733333333333334
aF0.08622222222222223
aF0.08844444444444445
aF0.07111111111111111
aF0.06488888888888888
aF0.064
aF0.072
aF0.058666666666666666
aF0.06355555555555556
aF0.04844444444444444
aF0.059111111111111114
aF0.043555555555555556
aF0.04844444444444444
aF0.037333333333333336
aF0.037333333333333336
aF0.025777777777777778
aa(lp16
F0.5511111111111111
aF0.4662222222222222
aF0.38133333333333336
aF0.08711111111111111
aF0.06888888888888889
aF0.072
aF0.033777777777777775
aF0.024888888888888887
aF0.02666666666666667
aF0.03866666666666667
aF0.044
aF0.06755555555555555
aF0.06088888888888889
aF0.05333333333333334
aF0.08311111111111111
aF0.09688888888888889
aF0.08177777777777778
aF0.09155555555555556
aF0.1111111111111111
aF0.112
aF0.1391111111111111
aF0.11155555555555556
aF0.096
aF0.11777777777777777
aF0.096
aF0.108
aF0.11644444444444445
aF0.09866666666666667
aF0.096
aF0.08711111111111111
aF0.08622222222222223
aF0.07244444444444445
aF0.10355555555555555
aF0.08355555555555555
aF0.07733333333333334
aF0.06088888888888889
aF0.07955555555555556
aF0.05377777777777778
aF0.05422222222222222
aF0.06133333333333333
aF0.04844444444444444
aF0.03822222222222222
aF0.051111111111111114
aF0.041777777777777775
aa(lp17
F0.5208888888888888
aF0.5053333333333333
aF0.34
aF0.14577777777777778
aF0.07111111111111111
aF0.03822222222222222
aF0.03955555555555555
aF0.03244444444444444
aF0.018222222222222223
aF0.02
aF0.027555555555555555
aF0.028444444444444446
aF0.04622222222222222
aF0.06666666666666667
aF0.04488888888888889
aF0.09422222222222222
aF0.06977777777777777
aF0.10044444444444445
aF0.09911111111111111
aF0.17155555555555554
aF0.13777777777777778
aF0.11911111111111111
aF0.144
aF0.108
aF0.14666666666666667
aF0.11911111111111111
aF0.09422222222222222
aF0.15511111111111112
aF0.10355555555555555
aF0.11866666666666667
aF0.10711111111111112
aF0.132
aF0.07377777777777778
aF0.10088888888888889
aF0.0768888888888889
aF0.09644444444444444
aF0.08133333333333333
aF0.05511111111111111
aF0.08933333333333333
aF0.07777777777777778
aF0.04622222222222222
aF0.052
aF0.09022222222222222
aF0.04044444444444444
aa(lp18
F0.5613333333333334
aF0.5248888888888888
aF0.3333333333333333
aF0.12266666666666666
aF0.07955555555555556
aF0.035555555555555556
aF0.03688888888888889
aF0.017777777777777778
aF0.05377777777777778
aF0.024444444444444446
aF0.03333333333333333
aF0.02711111111111111
aF0.020444444444444446
aF0.043555555555555556
aF0.06133333333333333
aF0.036
aF0.07422222222222222
aF0.08266666666666667
aF0.11155555555555556
aF0.11511111111111111
aF0.11777777777777777
aF0.088
aF0.10444444444444445
aF0.1391111111111111
aF0.11333333333333333
aF0.1351111111111111
aF0.12755555555555556
aF0.12177777777777778
aF0.11555555555555555
aF0.13466666666666666
aF0.10711111111111112
aF0.10444444444444445
aF0.09155555555555556
aF0.0951111111111111
aF0.08755555555555555
aF0.08533333333333333
aF0.08311111111111111
aF0.092
aF0.09688888888888889
aF0.08355555555555555
aF0.0768888888888889
aF0.051555555555555556
aF0.06222222222222222
aF0.06577777777777778
aa(lp19
F0.4666666666666667
aF0.4222222222222222
aF0.30622222222222223
aF0.14577777777777778
aF0.019555555555555555
aF0.04577777777777778
aF0.028888888888888888
aF0.016444444444444446
aF0.014222222222222223
aF0.022222222222222223
aF0.030222222222222223
aF0.015555555555555555
aF0.04088888888888889
aF0.035111111111111114
aF0.035555555555555556
aF0.08488888888888889
aF0.06355555555555556
aF0.058222222222222224
aF0.06533333333333333
aF0.1
aF0.11822222222222223
aF0.10133333333333333
aF0.1
aF0.12222222222222222
aF0.10133333333333333
aF0.13066666666666665
aF0.13866666666666666
aF0.12
aF0.1
aF0.096
aF0.11244444444444444
aF0.12
aF0.11377777777777778
aF0.10977777777777778
aF0.10444444444444445
aF0.09688888888888889
aF0.12488888888888888
aF0.09288888888888888
aF0.07022222222222223
aF0.09822222222222222
aF0.084
aF0.08711111111111111
aF0.07644444444444444
aF0.06488888888888888
aa(lp20
F0.5
aF0.4533333333333333
aF0.30977777777777776
aF0.0791111111111111
aF0.042222222222222223
aF0.03688888888888889
aF0.015111111111111112
aF0.01911111111111111
aF0.017333333333333333
aF0.0057777777777777775
aF0.011111111111111112
aF0.014222222222222223
aF0.015111111111111112
aF0.022222222222222223
aF0.02311111111111111
aF0.019555555555555555
aF0.03333333333333333
aF0.030666666666666665
aF0.04711111111111111
aF0.07377777777777778
aF0.11333333333333333
aF0.07422222222222222
aF0.1111111111111111
aF0.15066666666666667
aF0.10977777777777778
aF0.1368888888888889
aF0.13644444444444445
aF0.11866666666666667
aF0.14933333333333335
aF0.13644444444444445
aF0.15733333333333333
aF0.11733333333333333
aF0.15866666666666668
aF0.11644444444444445
aF0.09911111111111111
aF0.11244444444444444
aF0.12
aF0.10133333333333333
aF0.09466666666666666
aF0.09911111111111111
aF0.08444444444444445
aF0.08044444444444444
aF0.09866666666666667
aF0.07466666666666667
aa(lp21
F0.54
aF0.5746666666666667
aF0.3164444444444444
aF0.08355555555555555
aF0.08222222222222222
aF0.04622222222222222
aF0.009333333333333334
aF0.018666666666666668
aF0.0071111111111111115
aF0.011111111111111112
aF0.0026666666666666666
aF0.006222222222222222
aF0.003111111111111111
aF0.003111111111111111
aF0.016
aF0.020888888888888887
aF0.029777777777777778
aF0.021777777777777778
aF0.04533333333333334
aF0.034666666666666665
aF0.06177777777777778
aF0.057777777777777775
aF0.07111111111111111
aF0.07733333333333334
aF0.11422222222222222
aF0.08666666666666667
aF0.12533333333333332
aF0.08044444444444444
aF0.11822222222222223
aF0.12844444444444444
aF0.14888888888888888
aF0.09777777777777778
aF0.12355555555555556
aF0.14622222222222223
aF0.12666666666666668
aF0.12088888888888889
aF0.15733333333333333
aF0.112
aF0.12
aF0.10088888888888889
aF0.10577777777777778
aF0.12711111111111112
aF0.112
aF0.08222222222222222
aa(lp22
F0.5195555555555555
aF0.4528888888888889
aF0.38755555555555554
aF0.10711111111111112
aF0.04755555555555555
aF0.022222222222222223
aF0.012444444444444444
aF0.0035555555555555557
aF0.011555555555555555
aF0.006222222222222222
aF0.007555555555555556
aF0.012888888888888889
aF0.012
aF0.011555555555555555
aF0.0071111111111111115
aF0.013777777777777778
aF0.016444444444444446
aF0.028
aF0.030222222222222223
aF0.048
aF0.09066666666666667
aF0.03955555555555555
aF0.08755555555555555
aF0.07155555555555555
aF0.07466666666666667
aF0.09066666666666667
aF0.09288888888888888
aF0.13244444444444445
aF0.08933333333333333
aF0.09866666666666667
aF0.056
aF0.11466666666666667
aF0.12266666666666666
aF0.13955555555555554
aF0.13733333333333334
aF0.13155555555555556
aF0.09733333333333333
aF0.1431111111111111
aF0.12266666666666666
aF0.13422222222222221
aF0.12755555555555556
aF0.12222222222222222
aF0.08933333333333333
aF0.07955555555555556
aa(lp23
F0.5697777777777778
aF0.49777777777777776
aF0.2911111111111111
aF0.05422222222222222
aF0.030666666666666665
aF0.030222222222222223
aF0.016444444444444446
aF0.012
aF0.014222222222222223
aF0.011555555555555555
aF0.0044444444444444444
aF0.003111111111111111
aF0.0071111111111111115
aF0.006222222222222222
aF0.0017777777777777779
aF0.015111111111111112
aF0.010666666666666666
aF0.021777777777777778
aF0.028888888888888888
aF0.024888888888888887
aF0.030222222222222223
aF0.04088888888888889
aF0.06888888888888889
aF0.068
aF0.072
aF0.057777777777777775
aF0.10311111111111111
aF0.1302222222222222
aF0.11422222222222222
aF0.1391111111111111
aF0.13377777777777777
aF0.11377777777777778
aF0.14
aF0.11644444444444445
aF0.11288888888888889
aF0.15466666666666667
aF0.12666666666666668
aF0.14888888888888888
aF0.1288888888888889
aF0.08577777777777777
aF0.09644444444444444
aF0.10488888888888889
aF0.10133333333333333
aF0.11288888888888889
aa(lp24
F0.5862222222222222
aF0.47644444444444445
aF0.316
aF0.10488888888888889
aF0.036
aF0.044
aF0.012888888888888889
aF0.0071111111111111115
aF0.0044444444444444444
aF0.0017777777777777779
aF0.0
aF0.003111111111111111
aF0.003111111111111111
aF0.008444444444444444
aF0.0026666666666666666
aF0.009333333333333334
aF0.01911111111111111
aF0.010666666666666666
aF0.03333333333333333
aF0.013333333333333334
aF0.03288888888888889
aF0.04533333333333334
aF0.050666666666666665
aF0.030222222222222223
aF0.02711111111111111
aF0.06533333333333333
aF0.07777777777777778
aF0.09822222222222222
aF0.07022222222222223
aF0.08577777777777777
aF0.09777777777777778
aF0.12311111111111112
aF0.10311111111111111
aF0.14444444444444443
aF0.13822222222222222
aF0.12933333333333333
aF0.12933333333333333
aF0.12666666666666668
aF0.12088888888888889
aF0.128
aF0.12133333333333333
aF0.12977777777777777
aF0.11288888888888889
aF0.11822222222222223
aa.