(lp0
(lp1
F0.4
aF0.6
aF0.4
aF0.4
aF0.5
aF0.4
aF0.3
aF0.5
aF0.5
aF0.5
aF0.3
aF0.5
aF0.2
aF0.2
aF0.3
aF0.5
aF0.5
aF0.2
aF0.5
aF0.5
aF0.4
aF0.5
aF0.4
aF0.4
aF0.5
aF0.6
aF0.3
aF0.6
aF0.4
aF0.5
aF0.7
aF0.3
aF0.5
aF0.3
aF0.3
aF0.5
aF0.3
aF0.5
aF0.1
aF0.3
aF0.3
aF0.5
aF0.4
aF0.3
aa(lp2
F0.176
aF0.3022222222222222
aF0.2946666666666667
aF0.5026666666666667
aF0.4235555555555556
aF0.5435555555555556
aF0.4751111111111111
aF0.6
aF0.464
aF0.44
aF0.48
aF0.532
aF0.312
aF0.368
aF0.3
aF0.428
aF0.396
aF0.512
aF0.348
aF0.264
aF0.44
aF0.48
aF0.436
aF0.436
aF0.552
aF0.428
aF0.516
aF0.424
aF0.488
aF0.244
aF0.476
aF0.568
aF0.56
aF0.432
aF0.544
aF0.356
aF0.672
aF0.564
aF0.288
aF0.532
aF0.248
aF0.456
aF0.284
aF0.624
aa(lp3
F0.11511111111111111
aF0.15777777777777777
aF0.3328888888888889
aF0.49333333333333335
aF0.232
aF0.5213333333333333
aF0.38755555555555554
aF0.39155555555555555
aF0.5631111111111111
aF0.304
aF0.364
aF0.468
aF0.46
aF0.424
aF0.456
aF0.5795555555555556
aF0.476
aF0.632
aF0.592
aF0.596
aF0.46
aF0.564
aF0.488
aF0.444
aF0.456
aF0.42
aF0.328
aF0.508
aF0.468
aF0.396
aF0.404
aF0.268
aF0.464
aF0.38
aF0.544
aF0.436
aF0.46
aF0.544
aF0.344
aF0.428
aF0.412
aF0.372
aF0.492
aF0.392
aa(lp4
F0.08088888888888889
aF0.11466666666666667
aF0.22844444444444445
aF0.2351111111111111
aF0.15777777777777777
aF0.34933333333333333
aF0.4128888888888889
aF0.388
aF0.37022222222222223
aF0.4826666666666667
aF0.38533333333333336
aF0.37422222222222223
aF0.4137777777777778
aF0.4066666666666667
aF0.4391111111111111
aF0.424
aF0.3591111111111111
aF0.448
aF0.464
aF0.5671111111111111
aF0.492
aF0.432
aF0.408
aF0.5075555555555555
aF0.584
aF0.628
aF0.532
aF0.444
aF0.424
aF0.516
aF0.488
aF0.468
aF0.42
aF0.44
aF0.484
aF0.404
aF0.424
aF0.48
aF0.516
aF0.336
aF0.452
aF0.46
aF0.58
aF0.472
aa(lp5
F0.1448888888888889
aF0.06622222222222222
aF0.13155555555555556
aF0.1622222222222222
aF0.26666666666666666
aF0.28844444444444445
aF0.19244444444444445
aF0.26355555555555554
aF0.2688888888888889
aF0.352
aF0.33644444444444443
aF0.4537777777777778
aF0.4022222222222222
aF0.4177777777777778
aF0.2902222222222222
aF0.3973333333333333
aF0.5244444444444445
aF0.43377777777777776
aF0.5537777777777778
aF0.5057777777777778
aF0.45955555555555555
aF0.4875555555555556
aF0.428
aF0.44622222222222224
aF0.604
aF0.4151111111111111
aF0.5675555555555556
aF0.508
aF0.408
aF0.536
aF0.39955555555555555
aF0.62
aF0.528
aF0.464
aF0.32
aF0.448
aF0.296
aF0.504
aF0.392
aF0.384
aF0.408
aF0.34
aF0.416
aF0.528
aa(lp6
F0.14355555555555555
aF0.044444444444444446
aF0.06888888888888889
aF0.08177777777777778
aF0.2608888888888889
aF0.19244444444444445
aF0.17866666666666667
aF0.30044444444444446
aF0.32844444444444443
aF0.37733333333333335
aF0.44177777777777777
aF0.448
aF0.3622222222222222
aF0.3293333333333333
aF0.37422222222222223
aF0.31955555555555554
aF0.42844444444444446
aF0.35555555555555557
aF0.3808888888888889
aF0.4222222222222222
aF0.4177777777777778
aF0.37333333333333335
aF0.4746666666666667
aF0.5177777777777778
aF0.49377777777777776
aF0.5608888888888889
aF0.43733333333333335
aF0.5195555555555555
aF0.504
aF0.45022222222222225
aF0.4866666666666667
aF0.39955555555555555
aF0.5546666666666666
aF0.44266666666666665
aF0.33955555555555555
aF0.392
aF0.508
aF0.48
aF0.428
aF0.404
aF0.496
aF0.41555555555555557
aF0.488
aF0.396
aa(lp7
F0.049777777777777775
aF0.06755555555555555
aF0.03333333333333333
aF0.04133333333333333
aF0.07955555555555556
aF0.13244444444444445
aF0.10622222222222222
aF0.22088888888888888
aF0.36044444444444446
aF0.188
aF0.3768888888888889
aF0.40355555555555556
aF0.304
aF0.29777777777777775
aF0.384
aF0.3648888888888889
aF0.2986666666666667
aF0.496
aF0.4008888888888889
aF0.4568888888888889
aF0.3595555555555556
aF0.5573333333333333
aF0.49333333333333335
aF0.424
aF0.43822222222222224
aF0.34355555555555556
aF0.44266666666666665
aF0.4448888888888889
aF0.47688888888888886
aF0.45066666666666666
aF0.4693333333333333
aF0.4146666666666667
aF0.4751111111111111
aF0.4093333333333333
aF0.4666666666666667
aF0.44266666666666665
aF0.38755555555555554
aF0.492
aF0.336
aF0.3595555555555556
aF0.4231111111111111
aF0.43955555555555553
aF0.41955555555555557
aF0.5155555555555555
aa(lp8
F0.07333333333333333
aF0.06755555555555555
aF0.0008888888888888889
aF0.04711111111111111
aF0.043111111111111114
aF0.08711111111111111
aF0.16666666666666666
aF0.11288888888888889
aF0.1671111111111111
aF0.2617777777777778
aF0.30977777777777776
aF0.33244444444444443
aF0.30622222222222223
aF0.28933333333333333
aF0.43555555555555553
aF0.37822222222222224
aF0.4177777777777778
aF0.39644444444444443
aF0.38711111111111113
aF0.47155555555555556
aF0.41955555555555557
aF0.36044444444444446
aF0.49777777777777776
aF0.4057777777777778
aF0.3857777777777778
aF0.3391111111111111
aF0.43244444444444446
aF0.5084444444444445
aF0.5444444444444444
aF0.4888888888888889
aF0.42977777777777776
aF0.37822222222222224
aF0.44355555555555554
aF0.508
aF0.38266666666666665
aF0.4448888888888889
aF0.4137777777777778
aF0.4631111111111111
aF0.3302222222222222
aF0.3848888888888889
aF0.32622222222222225
aF0.36177777777777775
aF0.4782222222222222
aF0.4471111111111111
aa(lp9
F0.06222222222222222
aF0.049777777777777775
aF0.010222222222222223
aF0.017333333333333333
aF0.02266666666666667
aF0.03955555555555555
aF0.06711111111111111
aF0.12311111111111112
aF0.09733333333333333
aF0.15244444444444444
aF0.18355555555555556
aF0.21244444444444444
aF0.3928888888888889
aF0.2937777777777778
aF0.29644444444444445
aF0.36044444444444446
aF0.4991111111111111
aF0.32266666666666666
aF0.2857777777777778
aF0.34755555555555556
aF0.39111111111111113
aF0.3537777777777778
aF0.49066666666666664
aF0.4408888888888889
aF0.3426666666666667
aF0.4671111111111111
aF0.4066666666666667
aF0.36577777777777776
aF0.33866666666666667
aF0.4328888888888889
aF0.39155555555555555
aF0.4786666666666667
aF0.448
aF0.45644444444444443
aF0.46444444444444444
aF0.45955555555555555
aF0.4275555555555556
aF0.4662222222222222
aF0.4911111111111111
aF0.45866666666666667
aF0.5137777777777778
aF0.5053333333333333
aF0.4151111111111111
aF0.3728888888888889
aa(lp10
F0.17866666666666667
aF0.012888888888888889
aF0.004888888888888889
aF0.012888888888888889
aF0.018666666666666668
aF0.02
aF0.024
aF0.049777777777777775
aF0.06888888888888889
aF0.08755555555555555
aF0.13955555555555554
aF0.14888888888888888
aF0.22444444444444445
aF0.3662222222222222
aF0.26844444444444443
aF0.2773333333333333
aF0.28933333333333333
aF0.33555555555555555
aF0.34844444444444445
aF0.3582222222222222
aF0.41333333333333333
aF0.38133333333333336
aF0.32622222222222225
aF0.4662222222222222
aF0.44355555555555554
aF0.4271111111111111
aF0.4022222222222222
aF0.37333333333333335
aF0.4915555555555556
aF0.396
aF0.4484444444444444
aF0.37822222222222224
aF0.39022222222222225
aF0.4288888888888889
aF0.37777777777777777
aF0.4
aF0.504
aF0.4497777777777778
aF0.3884444444444444
aF0.4008888888888889
aF0.3626666666666667
aF0.44133333333333336
aF0.3546666666666667
aF0.3893333333333333
aa(lp11
F0.11733333333333333
aF0.030222222222222223
aF0.018666666666666668
aF0.0008888888888888889
aF0.018666666666666668
aF0.004
aF0.012
aF0.043111111111111114
aF0.035111111111111114
aF0.09377777777777778
aF0.08
aF0.184
aF0.10711111111111112
aF0.24444444444444444
aF0.24755555555555556
aF0.25066666666666665
aF0.37733333333333335
aF0.3128888888888889
aF0.24355555555555555
aF0.284
aF0.33955555555555555
aF0.424
aF0.3164444444444444
aF0.35733333333333334
aF0.3635555555555556
aF0.36
aF0.4888888888888889
aF0.4444444444444444
aF0.45644444444444443
aF0.3448888888888889
aF0.38355555555555554
aF0.46
aF0.48577777777777775
aF0.3942222222222222
aF0.45155555555555554
aF0.3377777777777778
aF0.35733333333333334
aF0.41688888888888886
aF0.5106666666666667
aF0.4222222222222222
aF0.4235555555555556
aF0.4688888888888889
aF0.4288888888888889
aF0.48133333333333334
aa(lp12
F0.051555555555555556
aF0.052444444444444446
aF0.004
aF0.0057777777777777775
aF0.0013333333333333333
aF0.011555555555555555
aF0.025777777777777778
aF0.010222222222222223
aF0.018222222222222223
aF0.018666666666666668
aF0.084
aF0.12177777777777778
aF0.08844444444444445
aF0.10933333333333334
aF0.14844444444444443
aF0.10133333333333333
aF0.15955555555555556
aF0.264
aF0.28355555555555556
aF0.388
aF0.21733333333333332
aF0.2848888888888889
aF0.2942222222222222
aF0.37377777777777776
aF0.40444444444444444
aF0.34933333333333333
aF0.4911111111111111
aF0.32222222222222224
aF0.324
aF0.38
aF0.39911111111111114
aF0.456
aF0.33466666666666667
aF0.4111111111111111
aF0.4
aF0.46044444444444443
aF0.38177777777777777
aF0.5213333333333333
aF0.35555555555555557
aF0.4311111111111111
aF0.4657777777777778
aF0.45466666666666666
aF0.4262222222222222
aF0.5111111111111111
aa(lp13
F0.11955555555555555
aF0.04577777777777778
aF0.0017777777777777779
aF0.009333333333333334
aF0.004
aF0.011555555555555555
aF0.02311111111111111
aF0.016
aF0.03422222222222222
aF0.03288888888888889
aF0.04933333333333333
aF0.09466666666666666
aF0.04133333333333333
aF0.12666666666666668
aF0.112
aF0.18844444444444444
aF0.1288888888888889
aF0.24844444444444444
aF0.2511111111111111
aF0.29688888888888887
aF0.28888888888888886
aF0.2351111111111111
aF0.2791111111111111
aF0.3328888888888889
aF0.2391111111111111
aF0.36
aF0.37333333333333335
aF0.3848888888888889
aF0.37422222222222223
aF0.31555555555555553
aF0.41733333333333333
aF0.3728888888888889
aF0.4275555555555556
aF0.37466666666666665
aF0.3448888888888889
aF0.44222222222222224
aF0.4786666666666667
aF0.4573333333333333
aF0.3551111111111111
aF0.4448888888888889
aF0.4017777777777778
aF0.36977777777777776
aF0.43333333333333335
aF0.428
aa(lp14
F0.092
aF0.012
aF0.0
aF0.0035555555555555557
aF0.016888888888888887
aF0.0
aF0.0035555555555555557
aF0.012888888888888889
aF0.010666666666666666
aF0.012
aF0.041777777777777775
aF0.025333333333333333
aF0.05333333333333334
aF0.07066666666666667
aF0.08044444444444444
aF0.07955555555555556
aF0.13777777777777778
aF0.16311111111111112
aF0.22
aF0.23377777777777778
aF0.21822222222222223
aF0.28844444444444445
aF0.2617777777777778
aF0.35733333333333334
aF0.348
aF0.33066666666666666
aF0.31066666666666665
aF0.272
aF0.29333333333333333
aF0.4031111111111111
aF0.3808888888888889
aF0.4137777777777778
aF0.48
aF0.35555555555555557
aF0.4493333333333333
aF0.428
aF0.4653333333333333
aF0.34755555555555556
aF0.5515555555555556
aF0.36133333333333334
aF0.4088888888888889
aF0.4128888888888889
aF0.4226666666666667
aF0.4777777777777778
aa(lp15
F0.11022222222222222
aF0.037333333333333336
aF0.00044444444444444447
aF0.009777777777777778
aF0.0013333333333333333
aF0.0035555555555555557
aF0.0
aF0.003111111111111111
aF0.0
aF0.014222222222222223
aF0.042222222222222223
aF0.016888888888888887
aF0.044
aF0.06133333333333333
aF0.08044444444444444
aF0.09866666666666667
aF0.11022222222222222
aF0.11688888888888889
aF0.19155555555555556
aF0.208
aF0.18222222222222223
aF0.27155555555555555
aF0.284
aF0.268
aF0.25244444444444447
aF0.28444444444444444
aF0.2817777777777778
aF0.31955555555555554
aF0.32755555555555554
aF0.36666666666666664
aF0.31155555555555553
aF0.3204444444444444
aF0.3711111111111111
aF0.30666666666666664
aF0.30266666666666664
aF0.41955555555555557
aF0.3426666666666667
aF0.37733333333333335
aF0.44622222222222224
aF0.4702222222222222
aF0.42844444444444446
aF0.4097777777777778
aF0.40844444444444444
aF0.3151111111111111
aa(lp16
F0.08711111111111111
aF0.008888888888888889
aF0.009333333333333334
aF0.0
aF0.0
aF0.00044444444444444447
aF0.0057777777777777775
aF0.0
aF0.003111111111111111
aF0.0022222222222222222
aF0.004888888888888889
aF0.015555555555555555
aF0.025333333333333333
aF0.01911111111111111
aF0.06088888888888889
aF0.06666666666666667
aF0.06311111111111112
aF0.08844444444444445
aF0.14444444444444443
aF0.18933333333333333
aF0.13066666666666665
aF0.17733333333333334
aF0.17644444444444443
aF0.24711111111111111
aF0.28755555555555556
aF0.23155555555555554
aF0.2591111111111111
aF0.2786666666666667
aF0.3408888888888889
aF0.35555555555555557
aF0.30177777777777776
aF0.3542222222222222
aF0.308
aF0.3977777777777778
aF0.38622222222222224
aF0.388
aF0.35333333333333333
aF0.4008888888888889
aF0.4608888888888889
aF0.39155555555555555
aF0.43377777777777776
aF0.39955555555555555
aF0.4231111111111111
aF0.4391111111111111
aa(lp17
F0.06666666666666667
aF0.021333333333333333
aF0.00044444444444444447
aF0.0013333333333333333
aF0.0
aF0.0026666666666666666
aF0.003111111111111111
aF0.0
aF0.0008888888888888889
aF0.006666666666666667
aF0.0026666666666666666
aF0.015555555555555555
aF0.028444444444444446
aF0.013777777777777778
aF0.026222222222222223
aF0.03955555555555555
aF0.03422222222222222
aF0.08266666666666667
aF0.108
aF0.11377777777777778
aF0.16577777777777777
aF0.148
aF0.13777777777777778
aF0.17777777777777778
aF0.18222222222222223
aF0.24888888888888888
aF0.20577777777777778
aF0.18666666666666668
aF0.22533333333333333
aF0.27155555555555555
aF0.3208888888888889
aF0.332
aF0.32355555555555554
aF0.25422222222222224
aF0.39555555555555555
aF0.3377777777777778
aF0.3977777777777778
aF0.4048888888888889
aF0.2982222222222222
aF0.36577777777777776
aF0.42844444444444446
aF0.43733333333333335
aF0.3648888888888889
aF0.44666666666666666
aa(lp18
F0.03288888888888889
aF0.0071111111111111115
aF0.012888888888888889
aF0.0
aF0.0
aF0.0
aF0.0
aF0.0
aF0.0008888888888888889
aF0.00044444444444444447
aF0.0
aF0.0026666666666666666
aF0.0017777777777777779
aF0.006666666666666667
aF0.010222222222222223
aF0.041777777777777775
aF0.016444444444444446
aF0.04133333333333333
aF0.05688888888888889
aF0.06711111111111111
aF0.08444444444444445
aF0.12755555555555556
aF0.13955555555555554
aF0.13555555555555557
aF0.18711111111111112
aF0.14755555555555555
aF0.21688888888888888
aF0.1942222222222222
aF0.21066666666666667
aF0.2288888888888889
aF0.25422222222222224
aF0.2848888888888889
aF0.3048888888888889
aF0.2688888888888889
aF0.22755555555555557
aF0.36088888888888887
aF0.332
aF0.45555555555555555
aF0.31466666666666665
aF0.34755555555555556
aF0.34355555555555556
aF0.3342222222222222
aF0.37066666666666664
aF0.3728888888888889
aa(lp19
F0.08933333333333333
aF0.024
aF0.00044444444444444447
aF0.0
aF0.0
aF0.0
aF0.0
aF0.0
aF0.0057777777777777775
aF0.0
aF0.006222222222222222
aF0.0057777777777777775
aF0.005333333333333333
aF0.0035555555555555557
aF0.005333333333333333
aF0.030222222222222223
aF0.018222222222222223
aF0.03911111111111111
aF0.030222222222222223
aF0.03866666666666667
aF0.08133333333333333
aF0.064
aF0.08044444444444444
aF0.11155555555555556
aF0.20133333333333334
aF0.11333333333333333
aF0.16266666666666665
aF0.21466666666666667
aF0.2826666666666667
aF0.23422222222222222
aF0.23377777777777778
aF0.272
aF0.21866666666666668
aF0.288
aF0.38222222222222224
aF0.3191111111111111
aF0.2853333333333333
aF0.2951111111111111
aF0.3933333333333333
aF0.388
aF0.33866666666666667
aF0.33955555555555555
aF0.3511111111111111
aF0.4577777777777778
aa(lp20
F0.058222222222222224
aF0.016
aF0.011111111111111112
aF0.0
aF0.0
aF0.00044444444444444447
aF0.0
aF0.0
aF0.0
aF0.00044444444444444447
aF0.0026666666666666666
aF0.0
aF0.004
aF0.004888888888888889
aF0.004
aF0.0057777777777777775
aF0.011555555555555555
aF0.030222222222222223
aF0.04844444444444444
aF0.05422222222222222
aF0.03866666666666667
aF0.05288888888888889
aF0.059555555555555556
aF0.09333333333333334
aF0.08711111111111111
aF0.11911111111111111
aF0.11155555555555556
aF0.15777777777777777
aF0.10488888888888889
aF0.14933333333333335
aF0.1622222222222222
aF0.21555555555555556
aF0.22444444444444445
aF0.2862222222222222
aF0.284
aF0.30977777777777776
aF0.25377777777777777
aF0.32133333333333336
aF0.33244444444444443
aF0.33066666666666666
aF0.292
aF0.3128888888888889
aF0.33866666666666667
aF0.3488888888888889
aa(lp21
F0.05333333333333334
aF0.017777777777777778
aF0.0035555555555555557
aF0.007555555555555556
aF0.0
aF0.0
aF0.00044444444444444447
aF0.0
aF0.0
aF0.0
aF0.0
aF0.0026666666666666666
aF0.0
aF0.0
aF0.006222222222222222
aF0.011555555555555555
aF0.012
aF0.007555555555555556
aF0.02
aF0.007555555555555556
aF0.044
aF0.028
aF0.02266666666666667
aF0.08666666666666667
aF0.07955555555555556
aF0.09822222222222222
aF0.11466666666666667
aF0.08
aF0.11511111111111111
aF0.11866666666666667
aF0.14133333333333334
aF0.23333333333333334
aF0.22311111111111112
aF0.184
aF0.25333333333333335
aF0.23733333333333334
aF0.2551111111111111
aF0.2866666666666667
aF0.2248888888888889
aF0.32222222222222224
aF0.30666666666666664
aF0.312
aF0.312
aF0.31022222222222223
aa(lp22
F0.06755555555555555
aF0.016
aF0.0057777777777777775
aF0.0
aF0.0
aF0.0
aF0.0
aF0.0
aF0.0
aF0.0
aF0.0
aF0.0
aF0.0
aF0.0026666666666666666
aF0.0
aF0.006222222222222222
aF0.0057777777777777775
aF0.0044444444444444444
aF0.013777777777777778
aF0.0026666666666666666
aF0.032
aF0.020444444444444446
aF0.028888888888888888
aF0.052444444444444446
aF0.06977777777777777
aF0.08222222222222222
aF0.07555555555555556
aF0.09155555555555556
aF0.10355555555555555
aF0.19644444444444445
aF0.144
aF0.21022222222222223
aF0.17822222222222223
aF0.20044444444444445
aF0.14666666666666667
aF0.24888888888888888
aF0.248
aF0.18044444444444444
aF0.2728888888888889
aF0.3035555555555556
aF0.28
aF0.264
aF0.2946666666666667
aF0.2697777777777778
aa(lp23
F0.043555555555555556
aF0.02666666666666667
aF0.008444444444444444
aF0.004
aF0.0
aF0.0
aF0.0
aF0.0
aF0.0
aF0.0
aF0.0
aF0.0
aF0.0
aF0.0
aF0.0
aF0.0013333333333333333
aF0.0026666666666666666
aF0.0044444444444444444
aF0.0057777777777777775
aF0.019555555555555555
aF0.010222222222222223
aF0.03155555555555556
aF0.016444444444444446
aF0.06666666666666667
aF0.04577777777777778
aF0.05466666666666667
aF0.10222222222222223
aF0.060444444444444446
aF0.10888888888888888
aF0.10844444444444444
aF0.10533333333333333
aF0.1431111111111111
aF0.12355555555555556
aF0.16533333333333333
aF0.14444444444444443
aF0.22666666666666666
aF0.2048888888888889
aF0.18977777777777777
aF0.19377777777777777
aF0.24844444444444444
aF0.2733333333333333
aF0.23777777777777778
aF0.2782222222222222
aF0.33244444444444443
aa(lp24
F0.08711111111111111
aF0.021777777777777778
aF0.0022222222222222222
aF0.0044444444444444444
aF0.0
aF0.0
aF0.0
aF0.0
aF0.0
aF0.0
aF0.0
aF0.0
aF0.0
aF0.0
aF0.0035555555555555557
aF0.0
aF0.0
aF0.008444444444444444
aF0.0044444444444444444
aF0.003111111111111111
aF0.010222222222222223
aF0.02266666666666667
aF0.017333333333333333
aF0.036
aF0.029777777777777778
aF0.033777777777777775
aF0.06577777777777778
aF0.06266666666666666
aF0.050666666666666665
aF0.064
aF0.059555555555555556
aF0.09244444444444444
aF0.1537777777777778
aF0.14666666666666667
aF0.15288888888888888
aF0.17022222222222222
aF0.17244444444444446
aF0.19111111111111112
aF0.17822222222222223
aF0.17955555555555555
aF0.22044444444444444
aF0.24666666666666667
aF0.2511111111111111
aF0.26311111111111113
aa.